target datalayout = "e-m:e-p270:32:32-p271:32:32-p272:64:64-i64:64-i128:128-f80:128-n8:16:32:64-S128"
target triple = "x86_64-pc-linux-gnu"

%struct.range_set = type { i32, i32, ptr }
%struct.line_log_data = type { ptr, ptr, %struct.range_set, ptr, %struct.diff_ranges }
%struct.diff_ranges = type { %struct.range_set, %struct.range_set }

; Function Attrs: nounwind uwtable
define internal void @diff_ranges_release(ptr noundef %0) #0 {
  %2 = alloca ptr, align 8
  store ptr %0, ptr %2, align 8, !tbaa !188
  %3 = load ptr, ptr %2, align 8, !tbaa !188
  %4 = getelementptr inbounds nuw %struct.diff_ranges, ptr %3, i32 0, i32 0
  call void @range_set_release(ptr noundef %4)
  %5 = load ptr, ptr %2, align 8, !tbaa !188
  %6 = getelementptr inbounds nuw %struct.diff_ranges, ptr %5, i32 0, i32 1
  call void @range_set_release(ptr noundef %6)
  ret void
}

; Function Attrs: nounwind uwtable
define dso_local void @range_set_release(ptr noundef %0) #0 {
  %2 = alloca ptr, align 8
  store ptr %0, ptr %2, align 8, !tbaa !4
  br label %3

3:                                                ; preds = %1
  %4 = load ptr, ptr %2, align 8, !tbaa !4
  %5 = getelementptr inbounds nuw %struct.range_set, ptr %4, i32 0, i32 2
  %6 = load ptr, ptr %5, align 8, !tbaa !16
  call void @free(ptr noundef %6) #9
  %7 = load ptr, ptr %2, align 8, !tbaa !4
  %8 = getelementptr inbounds nuw %struct.range_set, ptr %7, i32 0, i32 2
  store ptr null, ptr %8, align 8, !tbaa !16
  br label %9

9:                                                ; preds = %3
  %10 = load ptr, ptr %2, align 8, !tbaa !4
  %11 = getelementptr inbounds nuw %struct.range_set, ptr %10, i32 0, i32 1
  store i32 0, ptr %11, align 4, !tbaa !11
  %12 = load ptr, ptr %2, align 8, !tbaa !4
  %13 = getelementptr inbounds nuw %struct.range_set, ptr %12, i32 0, i32 0
  store i32 0, ptr %13, align 8, !tbaa !15
  ret void
}

; Function Attrs: nounwind uwtable
define internal void @line_log_data_clear(ptr noundef %0) #0 {
  %2 = alloca ptr, align 8
  store ptr %0, ptr %2, align 8, !tbaa !81
  %3 = load ptr, ptr %2, align 8, !tbaa !81
  %4 = getelementptr inbounds nuw %struct.line_log_data, ptr %3, i32 0, i32 2
  call void @range_set_release(ptr noundef %4)
  %5 = load ptr, ptr %2, align 8, !tbaa !81
  %6 = getelementptr inbounds nuw %struct.line_log_data, ptr %5, i32 0, i32 1
  %7 = load ptr, ptr %6, align 8, !tbaa !135
  call void @free(ptr noundef %7) #9
  %8 = load ptr, ptr %2, align 8, !tbaa !81
  %9 = getelementptr inbounds nuw %struct.line_log_data, ptr %8, i32 0, i32 3
  %10 = load ptr, ptr %9, align 8, !tbaa !187
  %11 = icmp ne ptr %10, null
  br i1 %11, label %12, label %16

12:                                               ; preds = %1
  %13 = load ptr, ptr %2, align 8, !tbaa !81
  %14 = getelementptr inbounds nuw %struct.line_log_data, ptr %13, i32 0, i32 3
  %15 = load ptr, ptr %14, align 8, !tbaa !187
  call void @diff_free_filepair(ptr noundef %15)
  br label %16

16:                                               ; preds = %12, %1
  %17 = load ptr, ptr %2, align 8, !tbaa !81
  %18 = getelementptr inbounds nuw %struct.line_log_data, ptr %17, i32 0, i32 4
  call void @diff_ranges_release(ptr noundef %18)
  ret void
}

; Function Attrs: nounwind uwtable
define internal void @free_line_log_data(ptr noundef %0) #0 {
  %2 = alloca ptr, align 8
  %3 = alloca ptr, align 8
  store ptr %0, ptr %2, align 8, !tbaa !81
  br label %4

4:                                                ; preds = %7, %1
  %5 = load ptr, ptr %2, align 8, !tbaa !81
  %6 = icmp ne ptr %5, null
  br i1 %6, label %7, label %14

7:                                                ; preds = %4
  call void @llvm.lifetime.start.p0(i64 8, ptr %3) #9
  %8 = load ptr, ptr %2, align 8, !tbaa !81
  %9 = getelementptr inbounds nuw %struct.line_log_data, ptr %8, i32 0, i32 0
  %10 = load ptr, ptr %9, align 8, !tbaa !131
  store ptr %10, ptr %3, align 8, !tbaa !81
  %11 = load ptr, ptr %2, align 8, !tbaa !81
  call void @line_log_data_clear(ptr noundef %11)
  %12 = load ptr, ptr %2, align 8, !tbaa !81
  call void @free(ptr noundef %12) #9
  %13 = load ptr, ptr %3, align 8, !tbaa !81
  store ptr %13, ptr %2, align 8, !tbaa !81
  call void @llvm.lifetime.end.p0(i64 8, ptr %3) #9
  br label %4, !llvm.loop !138

14:                                               ; preds = %4
  ret void
}

; Function Attrs: nounwind uwtable
define internal void @free_void_line_log_data(ptr noundef %0) #0 {
  %2 = alloca ptr, align 8
  store ptr %0, ptr %2, align 8, !tbaa !23
  %3 = load ptr, ptr %2, align 8, !tbaa !23
  call void @free_line_log_data(ptr noundef %3)
  ret void
}