; Function Attrs: nounwind uwtable
define internal void @free_void_line_log_data(ptr noundef %0) #0 {
  %.not5.i = icmp eq ptr %0, null
  br i1 %.not5.i, label %free_line_log_data.exit, label %.lr.ph.i

.lr.ph.i:                                         ; preds = %1, %line_log_data_clear.exit.i
  %.06.i = phi ptr [ %2, %line_log_data_clear.exit.i ], [ %0, %1 ]
  %2 = load ptr, ptr %.06.i, align 8, !tbaa !118
  %3 = getelementptr inbounds nuw i8, ptr %.06.i, i64 16
  %4 = getelementptr inbounds nuw i8, ptr %.06.i, i64 24
  %5 = load ptr, ptr %4, align 8, !tbaa !11
  tail call void @free(ptr noundef %5) #16
  tail call void @llvm.memset.p0.i64(ptr noundef nonnull align 8 dereferenceable(16) %3, i8 0, i64 16, i1 false)
  %6 = getelementptr inbounds nuw i8, ptr %.06.i, i64 8
  %7 = load ptr, ptr %6, align 8, !tbaa !113
  tail call void @free(ptr noundef %7) #16
  %8 = getelementptr inbounds nuw i8, ptr %.06.i, i64 32
  %9 = load ptr, ptr %8, align 8, !tbaa !126
  %.not.i.i = icmp eq ptr %9, null
  br i1 %.not.i.i, label %line_log_data_clear.exit.i, label %10

10:                                               ; preds = %.lr.ph.i
  tail call void @diff_free_filepair(ptr noundef nonnull %9) #16
  br label %line_log_data_clear.exit.i

line_log_data_clear.exit.i:                       ; preds = %10, %.lr.ph.i
  %11 = getelementptr inbounds nuw i8, ptr %.06.i, i64 40
  %12 = getelementptr inbounds nuw i8, ptr %.06.i, i64 48
  %13 = load ptr, ptr %12, align 8, !tbaa !11
  tail call void @free(ptr noundef %13) #16
  tail call void @llvm.memset.p0.i64(ptr noundef nonnull align 8 dereferenceable(16) %11, i8 0, i64 16, i1 false)
  %14 = getelementptr inbounds nuw i8, ptr %.06.i, i64 64
  %15 = load ptr, ptr %14, align 8, !tbaa !11
  tail call void @free(ptr noundef %15) #16
  tail call void @free(ptr noundef nonnull %.06.i) #16
  %.not.i = icmp eq ptr %2, null
  br i1 %.not.i, label %free_line_log_data.exit, label %.lr.ph.i, !llvm.loop !127

free_line_log_data.exit:                          ; preds = %line_log_data_clear.exit.i, %1
  ret void
}